target datalayout = "e-m:e-p270:32:32-p271:32:32-p272:64:64-i64:64-i128:128-f80:128-n8:16:32:64-S128"
target triple = "x86_64-pc-linux-gnu"

%struct.Rwr_Man_t_ = type { i32, ptr, ptr, ptr, ptr, ptr, ptr, ptr, ptr, ptr, ptr, ptr, i32, i32, i32, i32, i32, ptr, ptr, ptr, ptr, ptr, i32, i32, i32, i32, i32, [222 x i32], i32, i32, i32, i64, i64, i64, i64, i64, i64, i64 }

@.str.17 = private unnamed_addr constant [2 x i8] c"\0A\00", align 1
@.str.18 = private unnamed_addr constant [10 x i8] c"stats.txt\00", align 1
@.str.19 = private unnamed_addr constant [3 x i8] c"a+\00", align 1
@.str.20 = private unnamed_addr constant [4 x i8] c"%d \00", align 1
@.str.21 = private unnamed_addr constant [3 x i8] c"%d\00", align 1

; Function Attrs: nounwind uwtable
define void @Rwr_ManPrintStatsFile(ptr noundef %0) #0 {
  %2 = alloca ptr, align 8
  %3 = alloca ptr, align 8
  store ptr %0, ptr %2, align 8, !tbaa !9
  call void @llvm.lifetime.start.p0(i64 8, ptr %3) #9
  %4 = call noalias ptr @fopen(ptr noundef @.str.18, ptr noundef @.str.19)
  store ptr %4, ptr %3, align 8, !tbaa !93
  %5 = load ptr, ptr %3, align 8, !tbaa !93
  %6 = load ptr, ptr %2, align 8, !tbaa !9
  %7 = getelementptr inbounds nuw %struct.Rwr_Man_t_, ptr %6, i32 0, i32 28
  %8 = load i32, ptr %7, align 4, !tbaa !79
  %9 = call i32 (ptr, ptr, ...) @fprintf(ptr noundef %5, ptr noundef @.str.20, i32 noundef %8) #9
  %10 = load ptr, ptr %3, align 8, !tbaa !93
  %11 = load ptr, ptr %2, align 8, !tbaa !9
  %12 = getelementptr inbounds nuw %struct.Rwr_Man_t_, ptr %11, i32 0, i32 30
  %13 = load i32, ptr %12, align 4, !tbaa !81
  %14 = call i32 (ptr, ptr, ...) @fprintf(ptr noundef %10, ptr noundef @.str.20, i32 noundef %13) #9
  %15 = load ptr, ptr %3, align 8, !tbaa !93
  %16 = load ptr, ptr %2, align 8, !tbaa !9
  %17 = getelementptr inbounds nuw %struct.Rwr_Man_t_, ptr %16, i32 0, i32 23
  %18 = load i32, ptr %17, align 4, !tbaa !83
  %19 = call i32 (ptr, ptr, ...) @fprintf(ptr noundef %15, ptr noundef @.str.20, i32 noundef %18) #9
  %20 = load ptr, ptr %3, align 8, !tbaa !93
  %21 = load ptr, ptr %2, align 8, !tbaa !9
  %22 = getelementptr inbounds nuw %struct.Rwr_Man_t_, ptr %21, i32 0, i32 24
  %23 = load i32, ptr %22, align 8, !tbaa !95
  %24 = call i32 (ptr, ptr, ...) @fprintf(ptr noundef %20, ptr noundef @.str.21, i32 noundef %23) #9
  %25 = load ptr, ptr %3, align 8, !tbaa !93
  %26 = call i32 (ptr, ptr, ...) @fprintf(ptr noundef %25, ptr noundef @.str.17) #9
  %27 = load ptr, ptr %3, align 8, !tbaa !93
  %28 = call i32 @fclose(ptr noundef %27)
  call void @llvm.lifetime.end.p0(i64 8, ptr %3) #9
  ret void
}