; Function Attrs: nofree nounwind uwtable
define void @Rwr_ManPrintStatsFile(ptr noundef readonly captures(none) %0) local_unnamed_addr #7 {
  %2 = tail call noalias ptr @fopen(ptr noundef nonnull @.str.18, ptr noundef nonnull @.str.19)
  %3 = getelementptr inbounds nuw i8, ptr %0, i64 1068
  %4 = load i32, ptr %3, align 4, !tbaa !71
  %5 = tail call i32 (ptr, ptr, ...) @fprintf(ptr noundef %2, ptr noundef nonnull @.str.20, i32 noundef %4) #15
  %6 = getelementptr inbounds nuw i8, ptr %0, i64 1076
  %7 = load i32, ptr %6, align 4, !tbaa !73
  %8 = tail call i32 (ptr, ptr, ...) @fprintf(ptr noundef %2, ptr noundef nonnull @.str.20, i32 noundef %7) #15
  %9 = getelementptr inbounds nuw i8, ptr %0, i64 164
  %10 = load i32, ptr %9, align 4, !tbaa !75
  %11 = tail call i32 (ptr, ptr, ...) @fprintf(ptr noundef %2, ptr noundef nonnull @.str.20, i32 noundef %10) #15
  %12 = getelementptr inbounds nuw i8, ptr %0, i64 168
  %13 = load i32, ptr %12, align 8, !tbaa !89
  %14 = tail call i32 (ptr, ptr, ...) @fprintf(ptr noundef %2, ptr noundef nonnull @.str.21, i32 noundef %13) #15
  %fputc = tail call i32 @fputc(i32 10, ptr %2)
  %15 = tail call i32 @fclose(ptr noundef %2)
  ret void
}